target datalayout = "e-m:e-p270:32:32-p271:32:32-p272:64:64-i64:64-i128:128-f80:128-n8:16:32:64-S128"
target triple = "x86_64-pc-linux-gnu"

%struct.XLogwrtResult = type { i64, i64 }
%struct.XLogCtlData = type { %struct.XLogCtlInsert, %struct.XLogwrtRqst, i64, %struct.FullTransactionId, i64, i64, i64, %struct.pg_atomic_uint64, i64, i64, %struct.pg_atomic_uint64, %struct.pg_atomic_uint64, %struct.pg_atomic_uint64, i64, ptr, ptr, i32, i32, i32, i32, i8, i8, i64, i64, %struct.CheckPoint, i64, i8 }
%struct.XLogCtlInsert = type { i8, i64, i64, [128 x i8], i64, i8, i32, i64, ptr }
%struct.XLogwrtRqst = type { i64, i64 }
%struct.FullTransactionId = type { i64 }
%struct.pg_atomic_uint64 = type { i64 }
%struct.CheckPoint = type { i64, i32, i32, i8, i32, %struct.FullTransactionId, i32, i32, i32, i32, i32, i32, i32, i64, i32, i32, i32 }
%struct.LWLock = type { i16, %struct.pg_atomic_uint32, %struct.proclist_head }
%struct.pg_atomic_uint32 = type { i32 }
%struct.proclist_head = type { i32, i32 }
%union.LWLockPadded = type { %struct.LWLock, [112 x i8] }
%struct.ControlFileData = type { i64, i32, i32, i32, i64, i64, %struct.CheckPoint, i64, i64, i32, i64, i64, i8, i32, i8, i32, i32, i32, i32, i32, i8, i32, double, i32, i32, i32, i32, i32, i32, i32, i32, i8, i32, [32 x i8], i32 }

@XLogCtl = internal global ptr null, align 8
@LogwrtResult = internal global %struct.XLogwrtResult zeroinitializer, align 8
@MainLWLockArray = external global ptr, align 8
@LocalMinRecoveryPoint = internal global i64 0, align 8
@InRecovery = external global i8, align 1
@updateMinRecoveryPoint = internal global i8 1, align 1
@ControlFile = internal global ptr null, align 8
@LocalMinRecoveryPointTLI = internal global i32 0, align 4
@LocalRecoveryInProgress = internal global i8 1, align 1

; Function Attrs: inlinehint nounwind uwtable
define internal i64 @pg_atomic_read_u64_impl(ptr noundef %0) #6 {
  %2 = alloca ptr, align 8
  store ptr %0, ptr %2, align 8
  %3 = load ptr, ptr %2, align 8
  %4 = getelementptr inbounds nuw %struct.pg_atomic_uint64, ptr %3, i32 0, i32 0
  %5 = load volatile i64, ptr %4, align 8
  ret i64 %5
}

; Function Attrs: inlinehint nounwind uwtable
define internal i64 @pg_atomic_read_u64(ptr noundef %0) #6 {
  %2 = alloca ptr, align 8
  store ptr %0, ptr %2, align 8
  %3 = load ptr, ptr %2, align 8
  %4 = call i64 @pg_atomic_read_u64_impl(ptr noundef %3)
  ret i64 %4
}

; Function Attrs: nounwind uwtable
define dso_local zeroext i1 @RecoveryInProgress() #0 {
  %1 = alloca i1, align 1
  %2 = alloca ptr, align 8
  %3 = load i8, ptr @LocalRecoveryInProgress, align 1, !range !4, !noundef !5
  %4 = trunc i8 %3 to i1
  br i1 %4, label %6, label %5

5:                                                ; preds = %0
  store i1 false, ptr %1, align 1
  br label %15

6:                                                ; preds = %0
  call void @llvm.lifetime.start.p0(i64 8, ptr %2) #16
  %7 = load ptr, ptr @XLogCtl, align 8
  store ptr %7, ptr %2, align 8
  %8 = load ptr, ptr %2, align 8
  %9 = getelementptr inbounds nuw %struct.XLogCtlData, ptr %8, i32 0, i32 19
  %10 = load volatile i32, ptr %9, align 4
  %11 = icmp ne i32 %10, 2
  %12 = zext i1 %11 to i8
  store i8 %12, ptr @LocalRecoveryInProgress, align 1
  %13 = load i8, ptr @LocalRecoveryInProgress, align 1, !range !4, !noundef !5
  %14 = trunc i8 %13 to i1
  store i1 %14, ptr %1, align 1
  call void @llvm.lifetime.end.p0(i64 8, ptr %2) #16
  br label %15

15:                                               ; preds = %6, %5
  %16 = load i1, ptr %1, align 1
  ret i1 %16
}

; Function Attrs: nounwind uwtable
define dso_local zeroext i1 @XLogNeedsFlush(i64 noundef %0) #0 {
  %2 = alloca i1, align 1
  %3 = alloca i64, align 8
  store i64 %0, ptr %3, align 8
  %4 = call zeroext i1 @RecoveryInProgress()
  br i1 %4, label %5, label %46

5:                                                ; preds = %1
  %6 = load i64, ptr @LocalMinRecoveryPoint, align 8
  %7 = icmp eq i64 %6, 0
  br i1 %7, label %8, label %12

8:                                                ; preds = %5
  %9 = load i8, ptr @InRecovery, align 1, !range !4, !noundef !5
  %10 = trunc i8 %9 to i1
  br i1 %10, label %11, label %12

11:                                               ; preds = %8
  store i8 0, ptr @updateMinRecoveryPoint, align 1
  br label %12

12:                                               ; preds = %11, %8, %5
  %13 = load i64, ptr %3, align 8
  %14 = load i64, ptr @LocalMinRecoveryPoint, align 8
  %15 = icmp ule i64 %13, %14
  br i1 %15, label %19, label %16

16:                                               ; preds = %12
  %17 = load i8, ptr @updateMinRecoveryPoint, align 1, !range !4, !noundef !5
  %18 = trunc i8 %17 to i1
  br i1 %18, label %20, label %19

19:                                               ; preds = %16, %12
  store i1 false, ptr %2, align 1
  br label %65

20:                                               ; preds = %16
  %21 = load ptr, ptr @MainLWLockArray, align 8
  %22 = getelementptr inbounds %union.LWLockPadded, ptr %21, i64 9
  %23 = call zeroext i1 @LWLockConditionalAcquire(ptr noundef %22, i32 noundef 1)
  br i1 %23, label %25, label %24

24:                                               ; preds = %20
  store i1 true, ptr %2, align 1
  br label %65

25:                                               ; preds = %20
  %26 = load ptr, ptr @ControlFile, align 8
  %27 = getelementptr inbounds nuw %struct.ControlFileData, ptr %26, i32 0, i32 8
  %28 = load i64, ptr %27, align 8
  store i64 %28, ptr @LocalMinRecoveryPoint, align 8
  %29 = load ptr, ptr @ControlFile, align 8
  %30 = getelementptr inbounds nuw %struct.ControlFileData, ptr %29, i32 0, i32 9
  %31 = load i32, ptr %30, align 8
  store i32 %31, ptr @LocalMinRecoveryPointTLI, align 4
  %32 = load ptr, ptr @MainLWLockArray, align 8
  %33 = getelementptr inbounds %union.LWLockPadded, ptr %32, i64 9
  call void @LWLockRelease(ptr noundef %33)
  %34 = load i64, ptr @LocalMinRecoveryPoint, align 8
  %35 = icmp eq i64 %34, 0
  br i1 %35, label %36, label %37

36:                                               ; preds = %25
  store i8 0, ptr @updateMinRecoveryPoint, align 1
  br label %37

37:                                               ; preds = %36, %25
  %38 = load i64, ptr %3, align 8
  %39 = load i64, ptr @LocalMinRecoveryPoint, align 8
  %40 = icmp ule i64 %38, %39
  br i1 %40, label %44, label %41

41:                                               ; preds = %37
  %42 = load i8, ptr @updateMinRecoveryPoint, align 1, !range !4, !noundef !5
  %43 = trunc i8 %42 to i1
  br i1 %43, label %45, label %44

44:                                               ; preds = %41, %37
  store i1 false, ptr %2, align 1
  br label %65

45:                                               ; preds = %41
  store i1 true, ptr %2, align 1
  br label %65

46:                                               ; preds = %1
  %47 = load i64, ptr %3, align 8
  %48 = load i64, ptr getelementptr inbounds nuw (%struct.XLogwrtResult, ptr @LogwrtResult, i32 0, i32 1), align 8
  %49 = icmp ule i64 %47, %48
  br i1 %49, label %50, label %51

50:                                               ; preds = %46
  store i1 false, ptr %2, align 1
  br label %65

51:                                               ; preds = %46
  br label %52

52:                                               ; preds = %51
  %53 = load ptr, ptr @XLogCtl, align 8
  %54 = getelementptr inbounds nuw %struct.XLogCtlData, ptr %53, i32 0, i32 12
  %55 = call i64 @pg_atomic_read_u64(ptr noundef %54)
  store i64 %55, ptr getelementptr inbounds nuw (%struct.XLogwrtResult, ptr @LogwrtResult, i32 0, i32 1), align 8
  call void asm sideeffect "", "~{memory},~{dirflag},~{fpsr},~{flags}"() #16, !srcloc !47
  %56 = load ptr, ptr @XLogCtl, align 8
  %57 = getelementptr inbounds nuw %struct.XLogCtlData, ptr %56, i32 0, i32 11
  %58 = call i64 @pg_atomic_read_u64(ptr noundef %57)
  store i64 %58, ptr @LogwrtResult, align 8
  br label %59

59:                                               ; preds = %52
  %60 = load i64, ptr %3, align 8
  %61 = load i64, ptr getelementptr inbounds nuw (%struct.XLogwrtResult, ptr @LogwrtResult, i32 0, i32 1), align 8
  %62 = icmp ule i64 %60, %61
  br i1 %62, label %63, label %64

63:                                               ; preds = %59
  store i1 false, ptr %2, align 1
  br label %65

64:                                               ; preds = %59
  store i1 true, ptr %2, align 1
  br label %65

65:                                               ; preds = %64, %63, %50, %45, %44, %24, %19
  %66 = load i1, ptr %2, align 1
  ret i1 %66
}