; Function Attrs: nounwind uwtable
define dso_local zeroext i1 @XLogNeedsFlush(i64 noundef %0) local_unnamed_addr #0 {
  %2 = load i8, ptr @LocalRecoveryInProgress, align 1, !range !4, !noundef !5
  %3 = trunc nuw i8 %2 to i1
  br i1 %3, label %RecoveryInProgress.exit, label %RecoveryInProgress.exit.thread

RecoveryInProgress.exit:                          ; preds = %1
  %4 = load ptr, ptr @XLogCtl, align 8
  %5 = getelementptr inbounds nuw i8, ptr %4, i64 324
  %6 = load volatile i32, ptr %5, align 4
  %7 = icmp ne i32 %6, 2
  %8 = zext i1 %7 to i8
  store i8 %8, ptr @LocalRecoveryInProgress, align 1
  br i1 %7, label %9, label %RecoveryInProgress.exit.thread

9:                                                ; preds = %RecoveryInProgress.exit
  %10 = load i64, ptr @LocalMinRecoveryPoint, align 8
  %11 = icmp eq i64 %10, 0
  br i1 %11, label %12, label %16

12:                                               ; preds = %9
  %13 = load i8, ptr @InRecovery, align 1, !range !4, !noundef !5
  %14 = trunc nuw i8 %13 to i1
  br i1 %14, label %15, label %16

15:                                               ; preds = %12
  store i1 true, ptr @updateMinRecoveryPoint, align 1
  br label %16

16:                                               ; preds = %15, %12, %9
  %.not7 = icmp ugt i64 %0, %10
  br i1 %.not7, label %17, label %42

17:                                               ; preds = %16
  %.b5 = load i1, ptr @updateMinRecoveryPoint, align 1
  br i1 %.b5, label %42, label %18

18:                                               ; preds = %17
  %19 = load ptr, ptr @MainLWLockArray, align 8
  %20 = getelementptr inbounds nuw i8, ptr %19, i64 1152
  %21 = tail call zeroext i1 @LWLockConditionalAcquire(ptr noundef nonnull %20, i32 noundef 1) #26
  br i1 %21, label %22, label %42

22:                                               ; preds = %18
  %23 = load ptr, ptr @ControlFile, align 8
  %24 = getelementptr inbounds nuw i8, ptr %23, i64 136
  %25 = load i64, ptr %24, align 8
  store i64 %25, ptr @LocalMinRecoveryPoint, align 8
  %26 = load ptr, ptr @MainLWLockArray, align 8
  %27 = getelementptr inbounds nuw i8, ptr %26, i64 1152
  tail call void @LWLockRelease(ptr noundef nonnull %27) #26
  %28 = load i64, ptr @LocalMinRecoveryPoint, align 8
  %29 = icmp eq i64 %28, 0
  br i1 %29, label %30, label %31

30:                                               ; preds = %22
  store i1 true, ptr @updateMinRecoveryPoint, align 1
  br label %31

31:                                               ; preds = %30, %22
  %.not8 = icmp ugt i64 %0, %28
  br i1 %.not8, label %32, label %42

32:                                               ; preds = %31
  %.b = load i1, ptr @updateMinRecoveryPoint, align 1
  %not..b = xor i1 %.b, true
  br label %42

RecoveryInProgress.exit.thread:                   ; preds = %1, %RecoveryInProgress.exit
  %33 = load i64, ptr @LogwrtResult.1, align 8
  %.not = icmp ugt i64 %0, %33
  br i1 %.not, label %34, label %42

34:                                               ; preds = %RecoveryInProgress.exit.thread
  %35 = load ptr, ptr @XLogCtl, align 8
  %36 = getelementptr inbounds nuw i8, ptr %35, i64 280
  %37 = load volatile i64, ptr %36, align 8
  store i64 %37, ptr @LogwrtResult.1, align 8
  tail call void asm sideeffect "", "~{memory},~{dirflag},~{fpsr},~{flags}"() #26, !srcloc !51
  %38 = load ptr, ptr @XLogCtl, align 8
  %39 = getelementptr inbounds nuw i8, ptr %38, i64 272
  %40 = load volatile i64, ptr %39, align 8
  store i64 %40, ptr @LogwrtResult.0, align 8
  %41 = load i64, ptr @LogwrtResult.1, align 8
  %.not6 = icmp ugt i64 %0, %41
  br label %42

42:                                               ; preds = %32, %34, %RecoveryInProgress.exit.thread, %31, %18, %16, %17
  %.0 = phi i1 [ false, %17 ], [ false, %16 ], [ true, %18 ], [ false, %31 ], [ false, %RecoveryInProgress.exit.thread ], [ %.not6, %34 ], [ %not..b, %32 ]
  ret i1 %.0
}